target datalayout = "e-m:e-p270:32:32-p271:32:32-p272:64:64-i64:64-i128:128-f80:128-n8:16:32:64-S128"
target triple = "x86_64-pc-linux-gnu"

%class.TransTableL = type { %class.TransTable, i32, i32, i32, i32, i32, i32, %"struct.TransTableL::pageStatsType", [8192 x %"struct.TransTableL::aggrType"], [12 x [4 x ptr]], [12 x [4 x ptr]], ptr, ptr, %"struct.TransTableL::harvestedType", i32, i32 }
%class.TransTable = type { ptr }
%"struct.TransTableL::pageStatsType" = type { i32, i32, i32, i32, i32 }
%"struct.TransTableL::aggrType" = type { [4 x i32], [4 x [4 x i32]] }
%"struct.TransTableL::harvestedType" = type { i32, [1000 x ptr] }
%"struct.TransTableL::distHashType" = type { i32, i32, [32 x %"struct.TransTableL::posSearchType"] }
%"struct.TransTableL::posSearchType" = type { ptr, i64 }

; Function Attrs: mustprogress nounwind uwtable
define void @_ZNK11TransTableL14UpdateSuitHistEiiPiRi(ptr noundef nonnull align 8 dereferenceable(664216) %0, i32 noundef %1, i32 noundef %2, ptr noundef %3, ptr noundef nonnull align 4 dereferenceable(4) %4) #5 align 2 {
  %6 = alloca ptr, align 8
  %7 = alloca i32, align 4
  %8 = alloca i32, align 4
  %9 = alloca ptr, align 8
  %10 = alloca ptr, align 8
  %11 = alloca ptr, align 8
  %12 = alloca i32, align 4
  %13 = alloca i32, align 4
  store ptr %0, ptr %6, align 8
  store i32 %1, ptr %7, align 4
  store i32 %2, ptr %8, align 4
  store ptr %3, ptr %9, align 8
  store ptr %4, ptr %10, align 8
  %14 = load ptr, ptr %6, align 8
  %15 = load ptr, ptr %10, align 8
  store i32 0, ptr %15, align 4
  store i32 0, ptr %12, align 4
  br label %16

16:                                               ; preds = %24, %5
  %17 = load i32, ptr %12, align 4
  %18 = icmp sle i32 %17, 32
  br i1 %18, label %19, label %27

19:                                               ; preds = %16
  %20 = load ptr, ptr %9, align 8
  %21 = load i32, ptr %12, align 4
  %22 = sext i32 %21 to i64
  %23 = getelementptr inbounds i32, ptr %20, i64 %22
  store i32 0, ptr %23, align 4
  br label %24

24:                                               ; preds = %19
  %25 = load i32, ptr %12, align 4
  %26 = add nsw i32 %25, 1
  store i32 %26, ptr %12, align 4
  br label %16, !llvm.loop !43

27:                                               ; preds = %16
  store i32 0, ptr %13, align 4
  br label %28

28:                                               ; preds = %63, %27
  %29 = load i32, ptr %13, align 4
  %30 = icmp slt i32 %29, 256
  br i1 %30, label %31, label %66

31:                                               ; preds = %28
  %32 = getelementptr inbounds nuw %class.TransTableL, ptr %14, i32 0, i32 9
  %33 = load i32, ptr %7, align 4
  %34 = sext i32 %33 to i64
  %35 = getelementptr inbounds [12 x [4 x ptr]], ptr %32, i64 0, i64 %34
  %36 = load i32, ptr %8, align 4
  %37 = sext i32 %36 to i64
  %38 = getelementptr inbounds [4 x ptr], ptr %35, i64 0, i64 %37
  %39 = load ptr, ptr %38, align 8
  %40 = load i32, ptr %13, align 4
  %41 = sext i32 %40 to i64
  %42 = getelementptr inbounds %"struct.TransTableL::distHashType", ptr %39, i64 %41
  store ptr %42, ptr %11, align 8
  %43 = load ptr, ptr %9, align 8
  %44 = load ptr, ptr %11, align 8
  %45 = getelementptr inbounds nuw %"struct.TransTableL::distHashType", ptr %44, i32 0, i32 0
  %46 = load i32, ptr %45, align 8
  %47 = sext i32 %46 to i64
  %48 = getelementptr inbounds i32, ptr %43, i64 %47
  %49 = load i32, ptr %48, align 4
  %50 = add nsw i32 %49, 1
  store i32 %50, ptr %48, align 4
  %51 = load ptr, ptr %11, align 8
  %52 = getelementptr inbounds nuw %"struct.TransTableL::distHashType", ptr %51, i32 0, i32 0
  %53 = load i32, ptr %52, align 8
  %54 = load ptr, ptr %11, align 8
  %55 = getelementptr inbounds nuw %"struct.TransTableL::distHashType", ptr %54, i32 0, i32 1
  %56 = load i32, ptr %55, align 4
  %57 = icmp ne i32 %53, %56
  br i1 %57, label %58, label %62

58:                                               ; preds = %31
  %59 = load ptr, ptr %10, align 8
  %60 = load i32, ptr %59, align 4
  %61 = add nsw i32 %60, 1
  store i32 %61, ptr %59, align 4
  br label %62

62:                                               ; preds = %58, %31
  br label %63

63:                                               ; preds = %62
  %64 = load i32, ptr %13, align 4
  %65 = add nsw i32 %64, 1
  store i32 %65, ptr %13, align 4
  br label %28, !llvm.loop !44

66:                                               ; preds = %28
  ret void
}