; Function Attrs: mustprogress nofree norecurse nosync nounwind memory(read, argmem: readwrite, inaccessiblemem: none) uwtable
define void @_ZNK11TransTableL14UpdateSuitHistEiiPiRi(ptr nocapture noundef nonnull readonly align 8 dereferenceable(664216) %0, i32 noundef %1, i32 noundef %2, ptr nocapture noundef %3, ptr nocapture noundef nonnull align 4 dereferenceable(4) %4) local_unnamed_addr #24 align 2 {
.preheader:
  store i32 0, ptr %4, align 4
  tail call void @llvm.memset.p0.i64(ptr noundef nonnull align 4 dereferenceable(132) %3, i8 0, i64 132, i1 false)
  %5 = getelementptr inbounds nuw i8, ptr %0, i64 655416
  %6 = sext i32 %1 to i64
  %7 = sext i32 %2 to i64
  %8 = getelementptr inbounds [12 x [4 x ptr]], ptr %5, i64 0, i64 %6, i64 %7
  br label %9

9:                                                ; preds = %.preheader, %23
  %indvars.iv = phi i64 [ 0, %.preheader ], [ %indvars.iv.next, %23 ]
  %10 = load ptr, ptr %8, align 8
  %11 = getelementptr inbounds %"struct.TransTableL::distHashType", ptr %10, i64 %indvars.iv
  %12 = load i32, ptr %11, align 8
  %13 = sext i32 %12 to i64
  %14 = getelementptr inbounds i32, ptr %3, i64 %13
  %15 = load i32, ptr %14, align 4
  %16 = add nsw i32 %15, 1
  store i32 %16, ptr %14, align 4
  %17 = load i32, ptr %11, align 8
  %18 = getelementptr inbounds nuw i8, ptr %11, i64 4
  %19 = load i32, ptr %18, align 4
  %.not = icmp eq i32 %17, %19
  br i1 %.not, label %23, label %20

20:                                               ; preds = %9
  %21 = load i32, ptr %4, align 4
  %22 = add nsw i32 %21, 1
  store i32 %22, ptr %4, align 4
  br label %23

23:                                               ; preds = %9, %20
  %indvars.iv.next = add nuw nsw i64 %indvars.iv, 1
  %exitcond.not = icmp eq i64 %indvars.iv.next, 256
  br i1 %exitcond.not, label %24, label %9, !llvm.loop !67

24:                                               ; preds = %23
  ret void
}